target datalayout = "e-m:e-p270:32:32-p271:32:32-p272:64:64-i64:64-i128:128-f80:128-n8:16:32:64-S128"
target triple = "x86_64-pc-linux-gnu"

%"struct.ozz::io::internal::Array.0" = type { ptr, i64 }
%"struct.ozz::math::Float3" = type { float, float, float }
%"struct.ozz::math::Quaternion" = type { float, float, float, float }
%"struct.ozz::math::Transform" = type { %"struct.ozz::math::Float3", %"struct.ozz::math::Quaternion", %"struct.ozz::math::Float3" }
%"class.ozz::io::IArchive" = type <{ ptr, i8, [7 x i8] }>

; Function Attrs: alwaysinline mustprogress nounwind uwtable
define linkonce_odr dso_local void @_ZN3ozz19_in_place_byte_swapERhS0_(ptr noundef nonnull align 1 dereferenceable(1) %0, ptr noundef nonnull align 1 dereferenceable(1) %1) #2 comdat {
  %3 = alloca ptr, align 8
  %4 = alloca ptr, align 8
  store ptr %0, ptr %3, align 8, !tbaa !70
  store ptr %1, ptr %4, align 8, !tbaa !70
  %5 = load ptr, ptr %3, align 8, !tbaa !70
  %6 = load i8, ptr %5, align 1, !tbaa !72
  %7 = zext i8 %6 to i32
  %8 = load ptr, ptr %4, align 8, !tbaa !70
  %9 = load i8, ptr %8, align 1, !tbaa !72
  %10 = zext i8 %9 to i32
  %11 = xor i32 %7, %10
  %12 = trunc i32 %11 to i8
  %13 = load ptr, ptr %3, align 8, !tbaa !70
  store i8 %12, ptr %13, align 1, !tbaa !72
  %14 = load ptr, ptr %3, align 8, !tbaa !70
  %15 = load i8, ptr %14, align 1, !tbaa !72
  %16 = zext i8 %15 to i32
  %17 = load ptr, ptr %4, align 8, !tbaa !70
  %18 = load i8, ptr %17, align 1, !tbaa !72
  %19 = zext i8 %18 to i32
  %20 = xor i32 %16, %19
  %21 = trunc i32 %20 to i8
  %22 = load ptr, ptr %4, align 8, !tbaa !70
  store i8 %21, ptr %22, align 1, !tbaa !72
  %23 = load ptr, ptr %3, align 8, !tbaa !70
  %24 = load i8, ptr %23, align 1, !tbaa !72
  %25 = zext i8 %24 to i32
  %26 = load ptr, ptr %4, align 8, !tbaa !70
  %27 = load i8, ptr %26, align 1, !tbaa !72
  %28 = zext i8 %27 to i32
  %29 = xor i32 %25, %28
  %30 = trunc i32 %29 to i8
  %31 = load ptr, ptr %3, align 8, !tbaa !70
  store i8 %30, ptr %31, align 1, !tbaa !72
  ret void
}

; Function Attrs: alwaysinline mustprogress nounwind uwtable
define linkonce_odr dso_local void @_ZN3ozz13EndianSwapperIfLm4EE4SwapEPfm(ptr noundef %0, i64 noundef %1) #2 comdat align 2 {
  %3 = alloca ptr, align 8
  %4 = alloca i64, align 8
  %5 = alloca ptr, align 8
  %6 = alloca i64, align 8
  store ptr %0, ptr %3, align 8, !tbaa !15
  store i64 %1, ptr %4, align 8, !tbaa !11
  call void @llvm.lifetime.start.p0(i64 8, ptr %5) #6
  %7 = load ptr, ptr %3, align 8, !tbaa !15
  store ptr %7, ptr %5, align 8, !tbaa !70
  call void @llvm.lifetime.start.p0(i64 8, ptr %6) #6
  store i64 0, ptr %6, align 8, !tbaa !11
  br label %8

8:                                                ; preds = %31, %2
  %9 = load i64, ptr %6, align 8, !tbaa !11
  %10 = load i64, ptr %4, align 8, !tbaa !11
  %11 = mul i64 %10, 4
  %12 = icmp ult i64 %9, %11
  br i1 %12, label %14, label %13

13:                                               ; preds = %8
  call void @llvm.lifetime.end.p0(i64 8, ptr %6) #6
  br label %34

14:                                               ; preds = %8
  %15 = load ptr, ptr %5, align 8, !tbaa !70
  %16 = load i64, ptr %6, align 8, !tbaa !11
  %17 = add i64 %16, 0
  %18 = getelementptr inbounds nuw i8, ptr %15, i64 %17
  %19 = load ptr, ptr %5, align 8, !tbaa !70
  %20 = load i64, ptr %6, align 8, !tbaa !11
  %21 = add i64 %20, 3
  %22 = getelementptr inbounds nuw i8, ptr %19, i64 %21
  call void @_ZN3ozz19_in_place_byte_swapERhS0_(ptr noundef nonnull align 1 dereferenceable(1) %18, ptr noundef nonnull align 1 dereferenceable(1) %22)
  %23 = load ptr, ptr %5, align 8, !tbaa !70
  %24 = load i64, ptr %6, align 8, !tbaa !11
  %25 = add i64 %24, 1
  %26 = getelementptr inbounds nuw i8, ptr %23, i64 %25
  %27 = load ptr, ptr %5, align 8, !tbaa !70
  %28 = load i64, ptr %6, align 8, !tbaa !11
  %29 = add i64 %28, 2
  %30 = getelementptr inbounds nuw i8, ptr %27, i64 %29
  call void @_ZN3ozz19_in_place_byte_swapERhS0_(ptr noundef nonnull align 1 dereferenceable(1) %26, ptr noundef nonnull align 1 dereferenceable(1) %30)
  br label %31

31:                                               ; preds = %14
  %32 = load i64, ptr %6, align 8, !tbaa !11
  %33 = add i64 %32, 4
  store i64 %33, ptr %6, align 8, !tbaa !11
  br label %8, !llvm.loop !77

34:                                               ; preds = %13
  call void @llvm.lifetime.end.p0(i64 8, ptr %5) #6
  ret void
}

; Function Attrs: mustprogress nounwind uwtable
define linkonce_odr dso_local noundef zeroext i1 @_ZNK3ozz2io8IArchive11endian_swapEv(ptr noundef nonnull align 8 dereferenceable(9) %0) #3 comdat align 2 {
  %2 = alloca ptr, align 8
  store ptr %0, ptr %2, align 8, !tbaa !20
  %3 = load ptr, ptr %2, align 8
  %4 = getelementptr inbounds nuw %"class.ozz::io::IArchive", ptr %3, i32 0, i32 1
  %5 = load i8, ptr %4, align 8, !tbaa !76, !range !64, !noundef !65
  %6 = trunc i8 %5 to i1
  ret i1 %6
}

; Function Attrs: mustprogress uwtable
define linkonce_odr dso_local noundef i64 @_ZN3ozz2io8IArchive10LoadBinaryEPvm(ptr noundef nonnull align 8 dereferenceable(9) %0, ptr noundef %1, i64 noundef %2) #0 comdat align 2 {
  %4 = alloca ptr, align 8
  %5 = alloca ptr, align 8
  %6 = alloca i64, align 8
  store ptr %0, ptr %4, align 8, !tbaa !20
  store ptr %1, ptr %5, align 8, !tbaa !69
  store i64 %2, ptr %6, align 8, !tbaa !11
  %7 = load ptr, ptr %4, align 8
  %8 = getelementptr inbounds nuw %"class.ozz::io::IArchive", ptr %7, i32 0, i32 0
  %9 = load ptr, ptr %8, align 8, !tbaa !74
  %10 = load ptr, ptr %5, align 8, !tbaa !69
  %11 = load i64, ptr %6, align 8, !tbaa !11
  %12 = load ptr, ptr %9, align 8, !tbaa !67
  %13 = getelementptr inbounds ptr, ptr %12, i64 1
  %14 = load ptr, ptr %13, align 8
  %15 = call noundef i64 %14(ptr noundef nonnull align 8 dereferenceable(8) %9, ptr noundef %10, i64 noundef %11)
  ret i64 %15
}

; Function Attrs: alwaysinline mustprogress uwtable
define linkonce_odr dso_local void @_ZNK3ozz2io8internal5ArrayIfE4LoadERNS0_8IArchiveEj(ptr noundef nonnull align 8 dereferenceable(16) %0, ptr noundef nonnull align 8 dereferenceable(9) %1, i32 noundef %2) #5 comdat align 2 {
  %4 = alloca ptr, align 8
  %5 = alloca ptr, align 8
  %6 = alloca i32, align 4
  store ptr %0, ptr %4, align 8, !tbaa !24
  store ptr %1, ptr %5, align 8, !tbaa !20
  store i32 %2, ptr %6, align 4, !tbaa !22
  %7 = load ptr, ptr %4, align 8
  %8 = load ptr, ptr %5, align 8, !tbaa !20
  %9 = getelementptr inbounds nuw %"struct.ozz::io::internal::Array.0", ptr %7, i32 0, i32 0
  %10 = load ptr, ptr %9, align 8, !tbaa !26
  %11 = getelementptr inbounds nuw %"struct.ozz::io::internal::Array.0", ptr %7, i32 0, i32 1
  %12 = load i64, ptr %11, align 8, !tbaa !28
  %13 = mul i64 %12, 4
  %14 = call noundef i64 @_ZN3ozz2io8IArchive10LoadBinaryEPvm(ptr noundef nonnull align 8 dereferenceable(9) %8, ptr noundef %10, i64 noundef %13)
  %15 = load ptr, ptr %5, align 8, !tbaa !20
  %16 = call noundef zeroext i1 @_ZNK3ozz2io8IArchive11endian_swapEv(ptr noundef nonnull align 8 dereferenceable(9) %15)
  br i1 %16, label %17, label %22

17:                                               ; preds = %3
  %18 = getelementptr inbounds nuw %"struct.ozz::io::internal::Array.0", ptr %7, i32 0, i32 0
  %19 = load ptr, ptr %18, align 8, !tbaa !26
  %20 = getelementptr inbounds nuw %"struct.ozz::io::internal::Array.0", ptr %7, i32 0, i32 1
  %21 = load i64, ptr %20, align 8, !tbaa !28
  call void @_ZN3ozz13EndianSwapperIfLm4EE4SwapEPfm(ptr noundef %19, i64 noundef %21)
  br label %22

22:                                               ; preds = %17, %3
  ret void
}

; Function Attrs: inlinehint mustprogress uwtable
define linkonce_odr dso_local void @_ZN3ozz2io6ExternIKNS0_8internal5ArrayIfEEE4LoadERNS0_8IArchiveEPS5_mj(ptr noundef nonnull align 8 dereferenceable(9) %0, ptr noundef %1, i64 noundef %2, i32 noundef %3) #4 comdat align 2 {
  %5 = alloca ptr, align 8
  %6 = alloca ptr, align 8
  %7 = alloca i64, align 8
  %8 = alloca i32, align 4
  %9 = alloca i64, align 8
  store ptr %0, ptr %5, align 8, !tbaa !20
  store ptr %1, ptr %6, align 8, !tbaa !24
  store i64 %2, ptr %7, align 8, !tbaa !11
  store i32 %3, ptr %8, align 4, !tbaa !22
  call void @llvm.lifetime.start.p0(i64 8, ptr %9) #6
  store i64 0, ptr %9, align 8, !tbaa !11
  br label %10

10:                                               ; preds = %21, %4
  %11 = load i64, ptr %9, align 8, !tbaa !11
  %12 = load i64, ptr %7, align 8, !tbaa !11
  %13 = icmp ult i64 %11, %12
  br i1 %13, label %15, label %14

14:                                               ; preds = %10
  call void @llvm.lifetime.end.p0(i64 8, ptr %9) #6
  br label %24

15:                                               ; preds = %10
  %16 = load ptr, ptr %6, align 8, !tbaa !24
  %17 = load i64, ptr %9, align 8, !tbaa !11
  %18 = getelementptr inbounds nuw %"struct.ozz::io::internal::Array.0", ptr %16, i64 %17
  %19 = load ptr, ptr %5, align 8, !tbaa !20
  %20 = load i32, ptr %8, align 4, !tbaa !22
  call void @_ZNK3ozz2io8internal5ArrayIfE4LoadERNS0_8IArchiveEj(ptr noundef nonnull align 8 dereferenceable(16) %18, ptr noundef nonnull align 8 dereferenceable(9) %19, i32 noundef %20)
  br label %21

21:                                               ; preds = %15
  %22 = load i64, ptr %9, align 8, !tbaa !11
  %23 = add i64 %22, 1
  store i64 %23, ptr %9, align 8, !tbaa !11
  br label %10, !llvm.loop !73

24:                                               ; preds = %14
  ret void
}

; Function Attrs: mustprogress nounwind uwtable
define linkonce_odr dso_local noundef i32 @_ZN3ozz2io8IArchive11LoadVersionIKNS0_8internal5ArrayIfEEEEjv(ptr noundef nonnull align 8 dereferenceable(9) %0) #3 comdat align 2 {
  %2 = alloca ptr, align 8
  %3 = alloca i32, align 4
  store ptr %0, ptr %2, align 8, !tbaa !20
  call void @llvm.lifetime.start.p0(i64 4, ptr %3) #6
  store i32 0, ptr %3, align 4, !tbaa !22
  %4 = load i32, ptr %3, align 4, !tbaa !22
  call void @llvm.lifetime.end.p0(i64 4, ptr %3) #6
  ret i32 %4
}

; Function Attrs: mustprogress nounwind uwtable
define linkonce_odr dso_local noundef zeroext i1 @_ZN3ozz2io8internal6TaggerIKNS1_5ArrayIfEELb0EE8ValidateERNS0_8IArchiveE(ptr noundef nonnull align 8 dereferenceable(9) %0) #3 comdat align 2 {
  %2 = alloca ptr, align 8
  store ptr %0, ptr %2, align 8, !tbaa !20
  ret i1 true
}

; Function Attrs: mustprogress uwtable
define linkonce_odr dso_local void @_ZN3ozz2io8IArchiversIKNS0_8internal5ArrayIfEEEEvRT_(ptr noundef nonnull align 8 dereferenceable(9) %0, ptr noundef nonnull align 8 dereferenceable(16) %1) #0 comdat align 2 {
  %3 = alloca ptr, align 8
  %4 = alloca ptr, align 8
  %5 = alloca i32, align 4
  store ptr %0, ptr %3, align 8, !tbaa !20
  store ptr %1, ptr %4, align 8, !tbaa !24
  %6 = load ptr, ptr %3, align 8
  %7 = call noundef zeroext i1 @_ZN3ozz2io8internal6TaggerIKNS1_5ArrayIfEELb0EE8ValidateERNS0_8IArchiveE(ptr noundef nonnull align 8 dereferenceable(9) %6)
  call void @llvm.lifetime.start.p0(i64 4, ptr %5) #6
  %8 = call noundef i32 @_ZN3ozz2io8IArchive11LoadVersionIKNS0_8internal5ArrayIfEEEEjv(ptr noundef nonnull align 8 dereferenceable(9) %6)
  store i32 %8, ptr %5, align 4, !tbaa !22
  %9 = load ptr, ptr %4, align 8, !tbaa !24
  %10 = load i32, ptr %5, align 4, !tbaa !22
  call void @_ZN3ozz2io6ExternIKNS0_8internal5ArrayIfEEE4LoadERNS0_8IArchiveEPS5_mj(ptr noundef nonnull align 8 dereferenceable(9) %6, ptr noundef %9, i64 noundef 1, i32 noundef %10)
  call void @llvm.lifetime.end.p0(i64 4, ptr %5) #6
  ret void
}

; Function Attrs: alwaysinline mustprogress nounwind uwtable
define linkonce_odr dso_local { ptr, i64 } @_ZN3ozz2io9MakeArrayIfEEKNS0_8internal5ArrayIT_EEPS4_m(ptr noundef %0, i64 noundef %1) #2 comdat {
  %3 = alloca %"struct.ozz::io::internal::Array.0", align 8
  %4 = alloca ptr, align 8
  %5 = alloca i64, align 8
  store ptr %0, ptr %4, align 8, !tbaa !15
  store i64 %1, ptr %5, align 8, !tbaa !11
  %6 = getelementptr inbounds nuw %"struct.ozz::io::internal::Array.0", ptr %3, i32 0, i32 0
  %7 = load ptr, ptr %4, align 8, !tbaa !15
  store ptr %7, ptr %6, align 8, !tbaa !26
  %8 = getelementptr inbounds nuw %"struct.ozz::io::internal::Array.0", ptr %3, i32 0, i32 1
  %9 = load i64, ptr %5, align 8, !tbaa !11
  store i64 %9, ptr %8, align 8, !tbaa !28
  %10 = load { ptr, i64 }, ptr %3, align 8
  ret { ptr, i64 } %10
}

; Function Attrs: mustprogress uwtable
define dso_local void @_ZN3ozz2io6ExternINS_4math9TransformEE4LoadERNS0_8IArchiveEPS3_mj(ptr noundef nonnull align 8 dereferenceable(9) %0, ptr noundef %1, i64 noundef %2, i32 noundef %3) #0 align 2 {
  %5 = alloca ptr, align 8
  %6 = alloca ptr, align 8
  %7 = alloca i64, align 8
  %8 = alloca i32, align 4
  %9 = alloca %"struct.ozz::io::internal::Array.0", align 8
  store ptr %0, ptr %5, align 8, !tbaa !20
  store ptr %1, ptr %6, align 8, !tbaa !35
  store i64 %2, ptr %7, align 8, !tbaa !11
  store i32 %3, ptr %8, align 4, !tbaa !22
  %10 = load ptr, ptr %5, align 8, !tbaa !20
  call void @llvm.lifetime.start.p0(i64 16, ptr %9) #6
  %11 = load ptr, ptr %6, align 8, !tbaa !35
  %12 = getelementptr inbounds nuw %"struct.ozz::math::Transform", ptr %11, i32 0, i32 0
  %13 = getelementptr inbounds nuw %"struct.ozz::math::Float3", ptr %12, i32 0, i32 0
  %14 = load i64, ptr %7, align 8, !tbaa !11
  %15 = mul i64 10, %14
  %16 = call { ptr, i64 } @_ZN3ozz2io9MakeArrayIfEEKNS0_8internal5ArrayIT_EEPS4_m(ptr noundef %13, i64 noundef %15)
  %17 = getelementptr inbounds nuw { ptr, i64 }, ptr %9, i32 0, i32 0
  %18 = extractvalue { ptr, i64 } %16, 0
  store ptr %18, ptr %17, align 8
  %19 = getelementptr inbounds nuw { ptr, i64 }, ptr %9, i32 0, i32 1
  %20 = extractvalue { ptr, i64 } %16, 1
  store i64 %20, ptr %19, align 8
  call void @_ZN3ozz2io8IArchiversIKNS0_8internal5ArrayIfEEEEvRT_(ptr noundef nonnull align 8 dereferenceable(9) %10, ptr noundef nonnull align 8 dereferenceable(16) %9)
  call void @llvm.lifetime.end.p0(i64 16, ptr %9) #6
  ret void
}